ARM GAS  /var/folders/hn/8gr5z_xn56v50rhk4_8cn7z80000gn/T//ccq9dby1.s 			page 1


   1              		.cpu cortex-m4
   2              		.eabi_attribute 27, 1
   3              		.eabi_attribute 28, 1
   4              		.eabi_attribute 20, 1
   5              		.eabi_attribute 21, 1
   6              		.eabi_attribute 23, 3
   7              		.eabi_attribute 24, 1
   8              		.eabi_attribute 25, 1
   9              		.eabi_attribute 26, 1
  10              		.eabi_attribute 30, 2
  11              		.eabi_attribute 34, 1
  12              		.eabi_attribute 18, 4
  13              		.file	"main.c"
  14              		.text
  15              	.Ltext0:
  16              		.cfi_sections	.debug_frame
  17              		.section	.text.chprintf.constprop.0,"ax",%progbits
  18              		.align	1
  19              		.p2align 4,,15
  20              		.syntax unified
  21              		.thumb
  22              		.thumb_func
  23              		.fpu fpv4-sp-d16
  24              		.type	chprintf.constprop.0, %function
  25              	chprintf.constprop.0:
  26              	.LFB264:
  27              		.file 1 "../../lib/e-puck2_main-processor/ChibiOS//os/hal/lib/streams/chprintf.h"
  28              		.loc 1 69 0
  29              		.cfi_startproc
  30              		@ args = 4, pretend = 12, frame = 8
  31              		@ frame_needed = 0, uses_anonymous_args = 1
  32              	.LVL0:
  33 0000 0EB4     		push	{r1, r2, r3}
  34              		.cfi_def_cfa_offset 12
  35              		.cfi_offset 1, -12
  36              		.cfi_offset 2, -8
  37              		.cfi_offset 3, -4
  38 0002 10B5     		push	{r4, lr}
  39              		.cfi_def_cfa_offset 20
  40              		.cfi_offset 4, -20
  41              		.cfi_offset 14, -16
  42 0004 0A4C     		ldr	r4, .L6
  43              		.loc 1 74 0
  44 0006 0B49     		ldr	r1, .L6+4
  45              		.loc 1 69 0
  46 0008 2368     		ldr	r3, [r4]
  47              		.loc 1 74 0
  48 000a 0B48     		ldr	r0, .L6+8
  49              	.LVL1:
  50              		.loc 1 69 0
  51 000c 83B0     		sub	sp, sp, #12
  52              		.cfi_def_cfa_offset 32
  53              		.loc 1 69 0
  54 000e 0193     		str	r3, [sp, #4]
  55              	.LVL2:
  56              		.loc 1 73 0
  57 0010 06AB     		add	r3, sp, #24
ARM GAS  /var/folders/hn/8gr5z_xn56v50rhk4_8cn7z80000gn/T//ccq9dby1.s 			page 2


  58              		.loc 1 74 0
  59 0012 1A46     		mov	r2, r3
  60              		.loc 1 73 0
  61 0014 0093     		str	r3, [sp]
  62              		.loc 1 74 0
  63 0016 FFF7FEFF 		bl	chvprintf
  64              	.LVL3:
  65              		.loc 1 78 0
  66 001a 019A     		ldr	r2, [sp, #4]
  67 001c 2368     		ldr	r3, [r4]
  68 001e 9A42     		cmp	r2, r3
  69 0020 04D1     		bne	.L5
  70 0022 03B0     		add	sp, sp, #12
  71              		.cfi_remember_state
  72              		.cfi_def_cfa_offset 20
  73              		@ sp needed
  74 0024 BDE81040 		pop	{r4, lr}
  75              		.cfi_restore 14
  76              		.cfi_restore 4
  77              		.cfi_def_cfa_offset 12
  78 0028 03B0     		add	sp, sp, #12
  79              		.cfi_restore 3
  80              		.cfi_restore 2
  81              		.cfi_restore 1
  82              		.cfi_def_cfa_offset 0
  83 002a 7047     		bx	lr
  84              	.L5:
  85              		.cfi_restore_state
  86 002c FFF7FEFF 		bl	__stack_chk_fail
  87              	.LVL4:
  88              	.L7:
  89              		.align	2
  90              	.L6:
  91 0030 00000000 		.word	__stack_chk_guard
  92 0034 00000000 		.word	.LC0
  93 0038 00000000 		.word	SD3
  94              		.cfi_endproc
  95              	.LFE264:
  96              		.size	chprintf.constprop.0, .-chprintf.constprop.0
  97              		.section	.text.SendUint8ToComputer,"ax",%progbits
  98              		.align	1
  99              		.p2align 4,,15
 100              		.global	SendUint8ToComputer
 101              		.syntax unified
 102              		.thumb
 103              		.thumb_func
 104              		.fpu fpv4-sp-d16
 105              		.type	SendUint8ToComputer, %function
 106              	SendUint8ToComputer:
 107              	.LFB260:
 108              		.file 2 "main.c"
 109              		.loc 2 19 0
 110              		.cfi_startproc
 111              		@ args = 0, pretend = 0, frame = 16
 112              		@ frame_needed = 0, uses_anonymous_args = 0
 113              	.LVL5:
 114 0000 70B5     		push	{r4, r5, r6, lr}
ARM GAS  /var/folders/hn/8gr5z_xn56v50rhk4_8cn7z80000gn/T//ccq9dby1.s 			page 3


 115              		.cfi_def_cfa_offset 16
 116              		.cfi_offset 4, -16
 117              		.cfi_offset 5, -12
 118              		.cfi_offset 6, -8
 119              		.cfi_offset 14, -4
 120              		.loc 2 20 0
 121 0002 124C     		ldr	r4, .L12
 122              		.loc 2 19 0
 123 0004 124D     		ldr	r5, .L12+4
 124              		.loc 2 20 0
 125 0006 2368     		ldr	r3, [r4]
 126              		.loc 2 19 0
 127 0008 2A68     		ldr	r2, [r5]
 128 000a 84B0     		sub	sp, sp, #16
 129              		.cfi_def_cfa_offset 32
 130              		.loc 2 19 0
 131 000c 0646     		mov	r6, r0
 132 000e ADF80610 		strh	r1, [sp, #6]	@ movhi
 133              		.loc 2 20 0
 134 0012 1B68     		ldr	r3, [r3]
 135 0014 0F49     		ldr	r1, .L12+8
 136              	.LVL6:
 137              		.loc 2 19 0
 138 0016 0392     		str	r2, [sp, #12]
 139              		.loc 2 20 0
 140 0018 2046     		mov	r0, r4
 141              	.LVL7:
 142 001a 0522     		movs	r2, #5
 143 001c 9847     		blx	r3
 144              	.LVL8:
 145              		.loc 2 21 0
 146 001e 2368     		ldr	r3, [r4]
 147 0020 0222     		movs	r2, #2
 148 0022 1B68     		ldr	r3, [r3]
 149 0024 0DF10601 		add	r1, sp, #6
 150 0028 2046     		mov	r0, r4
 151 002a 9847     		blx	r3
 152              	.LVL9:
 153              		.loc 2 22 0
 154 002c 2368     		ldr	r3, [r4]
 155 002e BDF80620 		ldrh	r2, [sp, #6]
 156 0032 1B68     		ldr	r3, [r3]
 157 0034 3146     		mov	r1, r6
 158 0036 2046     		mov	r0, r4
 159 0038 9847     		blx	r3
 160              	.LVL10:
 161              		.loc 2 23 0
 162 003a 039A     		ldr	r2, [sp, #12]
 163 003c 2B68     		ldr	r3, [r5]
 164 003e 9A42     		cmp	r2, r3
 165 0040 01D1     		bne	.L11
 166 0042 04B0     		add	sp, sp, #16
 167              		.cfi_remember_state
 168              		.cfi_def_cfa_offset 16
 169              		@ sp needed
 170 0044 70BD     		pop	{r4, r5, r6, pc}
 171              	.LVL11:
ARM GAS  /var/folders/hn/8gr5z_xn56v50rhk4_8cn7z80000gn/T//ccq9dby1.s 			page 4


 172              	.L11:
 173              		.cfi_restore_state
 174 0046 FFF7FEFF 		bl	__stack_chk_fail
 175              	.LVL12:
 176              	.L13:
 177 004a 00BF     		.align	2
 178              	.L12:
 179 004c 00000000 		.word	SD3
 180 0050 00000000 		.word	__stack_chk_guard
 181 0054 00000000 		.word	.LC1
 182              		.cfi_endproc
 183              	.LFE260:
 184              		.size	SendUint8ToComputer, .-SendUint8ToComputer
 185              		.section	.text.startup.main,"ax",%progbits
 186              		.align	1
 187              		.p2align 4,,15
 188              		.global	main
 189              		.syntax unified
 190              		.thumb
 191              		.thumb_func
 192              		.fpu fpv4-sp-d16
 193              		.type	main, %function
 194              	main:
 195              	.LFB262:
 196              		.loc 2 38 0
 197              		.cfi_startproc
 198              		@ Volatile: function does not return.
 199              		@ args = 0, pretend = 0, frame = 8
 200              		@ frame_needed = 0, uses_anonymous_args = 0
 201 0000 00B5     		push	{lr}
 202              		.cfi_def_cfa_offset 4
 203              		.cfi_offset 14, -4
 204 0002 124B     		ldr	r3, .L18
 205              		.loc 2 60 0
 206 0004 124D     		ldr	r5, .L18+4
 207              		.loc 2 38 0
 208 0006 1B68     		ldr	r3, [r3]
 209 0008 83B0     		sub	sp, sp, #12
 210              		.cfi_def_cfa_offset 16
 211              		.loc 2 38 0
 212 000a 0193     		str	r3, [sp, #4]
 213              		.loc 2 40 0
 214 000c FFF7FEFF 		bl	halInit
 215              	.LVL13:
 216              		.loc 2 41 0
 217 0010 FFF7FEFF 		bl	chSysInit
 218              	.LVL14:
 219              		.loc 2 42 0
 220 0014 FFF7FEFF 		bl	mpu_init
 221              	.LVL15:
 222              	.LBB4:
 223              	.LBB5:
 224              		.loc 2 34 0
 225 0018 0E48     		ldr	r0, .L18+8
 226 001a 0F49     		ldr	r1, .L18+12
 227              	.LBE5:
 228              	.LBE4:
ARM GAS  /var/folders/hn/8gr5z_xn56v50rhk4_8cn7z80000gn/T//ccq9dby1.s 			page 5


 229              		.loc 2 60 0
 230 001c 0446     		mov	r4, r0
 231              	.LBB7:
 232              	.LBB6:
 233              		.loc 2 34 0
 234 001e FFF7FEFF 		bl	sdStart
 235              	.LVL16:
 236              	.LBE6:
 237              	.LBE7:
 238              		.loc 2 47 0
 239 0022 FFF7FEFF 		bl	usb_start
 240              	.LVL17:
 241              		.loc 2 49 0
 242 0026 FFF7FEFF 		bl	dcmi_start
 243              	.LVL18:
 244              		.loc 2 50 0
 245 002a FFF7FEFF 		bl	po8030_start
 246              	.LVL19:
 247              		.loc 2 52 0
 248 002e FFF7FEFF 		bl	motors_init
 249              	.LVL20:
 250              		.loc 2 55 0
 251 0032 FFF7FEFF 		bl	pi_regulator_start
 252              	.LVL21:
 253              		.loc 2 56 0
 254 0036 FFF7FEFF 		bl	process_image_start
 255              	.LVL22:
 256              	.L15:
 257              		.loc 2 60 0 discriminator 1
 258 003a 2946     		mov	r1, r5
 259 003c 2046     		mov	r0, r4
 260 003e FFF7FEFF 		bl	chprintf.constprop.0
 261              	.LVL23:
 262              		.loc 2 62 0 discriminator 1
 263 0042 4FF47A70 		mov	r0, #1000
 264 0046 FFF7FEFF 		bl	chThdSleep
 265              	.LVL24:
 266 004a F6E7     		b	.L15
 267              	.L19:
 268              		.align	2
 269              	.L18:
 270 004c 00000000 		.word	__stack_chk_guard
 271 0050 00000000 		.word	.LC0
 272 0054 00000000 		.word	SD3
 273 0058 00000000 		.word	.LANCHOR0
 274              		.cfi_endproc
 275              	.LFE262:
 276              		.size	main, .-main
 277              		.section	.text.__stack_chk_fail,"ax",%progbits
 278              		.align	1
 279              		.p2align 4,,15
 280              		.global	__stack_chk_fail
 281              		.syntax unified
 282              		.thumb
 283              		.thumb_func
 284              		.fpu fpv4-sp-d16
 285              		.type	__stack_chk_fail, %function
ARM GAS  /var/folders/hn/8gr5z_xn56v50rhk4_8cn7z80000gn/T//ccq9dby1.s 			page 6


 286              	__stack_chk_fail:
 287              	.LFB263:
 288              		.loc 2 70 0
 289              		.cfi_startproc
 290              		@ args = 0, pretend = 0, frame = 8
 291              		@ frame_needed = 0, uses_anonymous_args = 0
 292 0000 00B5     		push	{lr}
 293              		.cfi_def_cfa_offset 4
 294              		.cfi_offset 14, -4
 295 0002 084B     		ldr	r3, .L25
 296 0004 83B0     		sub	sp, sp, #12
 297              		.cfi_def_cfa_offset 16
 298              		.loc 2 70 0
 299 0006 1A68     		ldr	r2, [r3]
 300 0008 0192     		str	r2, [sp, #4]
 301              		.loc 2 71 0
 302 000a 019A     		ldr	r2, [sp, #4]
 303 000c 1B68     		ldr	r3, [r3]
 304 000e 9A42     		cmp	r2, r3
 305 0010 05D1     		bne	.L24
 306 0012 0548     		ldr	r0, .L25+4
 307              		.loc 2 72 0
 308 0014 03B0     		add	sp, sp, #12
 309              		.cfi_remember_state
 310              		.cfi_def_cfa_offset 4
 311              		@ sp needed
 312 0016 5DF804EB 		ldr	lr, [sp], #4
 313              		.cfi_restore 14
 314              		.cfi_def_cfa_offset 0
 315              		.loc 2 71 0
 316 001a FFF7FEBF 		b	chSysHalt
 317              	.LVL25:
 318              	.L24:
 319              		.cfi_restore_state
 320 001e FFF7FEFF 		bl	__stack_chk_fail
 321              	.LVL26:
 322              	.L26:
 323 0022 00BF     		.align	2
 324              	.L25:
 325 0024 00000000 		.word	__stack_chk_guard
 326 0028 00000000 		.word	.LC2
 327              		.cfi_endproc
 328              	.LFE263:
 329              		.size	__stack_chk_fail, .-__stack_chk_fail
 330              		.global	__stack_chk_guard
 331              		.section	.data.__stack_chk_guard,"aw",%progbits
 332              		.align	2
 333              		.type	__stack_chk_guard, %object
 334              		.size	__stack_chk_guard, 4
 335              	__stack_chk_guard:
 336 0000 96E3DEE2 		.word	-488709226
 337              		.section	.data.ser_cfg.12795,"aw",%progbits
 338              		.align	2
 339              		.set	.LANCHOR0,. + 0
 340              		.type	ser_cfg.12795, %object
 341              		.size	ser_cfg.12795, 12
 342              	ser_cfg.12795:
ARM GAS  /var/folders/hn/8gr5z_xn56v50rhk4_8cn7z80000gn/T//ccq9dby1.s 			page 7


 343 0000 00C20100 		.word	115200
 344 0004 0000     		.short	0
 345 0006 0000     		.short	0
 346 0008 0000     		.short	0
 347 000a 0000     		.space	2
 348              		.section	.rodata.SendUint8ToComputer.str1.4,"aMS",%progbits,1
 349              		.align	2
 350              	.LC1:
 351 0000 53544152 		.ascii	"START\000"
 351      5400
 352              		.section	.rodata.__stack_chk_fail.str1.4,"aMS",%progbits,1
 353              		.align	2
 354              	.LC2:
 355 0000 53746163 		.ascii	"Stack smashing detected\000"
 355      6B20736D 
 355      61736869 
 355      6E672064 
 355      65746563 
 356              		.section	.rodata.chprintf.constprop.0.str1.4,"aMS",%progbits,1
 357              		.align	2
 358              	.LC0:
 359 0000 636F7563 		.ascii	"coucou\000"
 359      6F7500
 360              		.text
 361              	.Letext0:
 362              		.file 3 "/Applications/Eclipse_e-puck2.app/Contents/Eclipse_e-puck2/Tools/gcc-arm-none-eabi-7-2017
 363              		.file 4 "/Applications/Eclipse_e-puck2.app/Contents/Eclipse_e-puck2/Tools/gcc-arm-none-eabi-7-2017
 364              		.file 5 "/Applications/Eclipse_e-puck2.app/Contents/Eclipse_e-puck2/Tools/gcc-arm-none-eabi-7-2017
 365              		.file 6 "/Applications/Eclipse_e-puck2.app/Contents/Eclipse_e-puck2/Tools/gcc-arm-none-eabi-7-2017
 366              		.file 7 "/Applications/Eclipse_e-puck2.app/Contents/Eclipse_e-puck2/Tools/gcc-arm-none-eabi-7-2017
 367              		.file 8 "/Applications/Eclipse_e-puck2.app/Contents/Eclipse_e-puck2/Tools/gcc-arm-none-eabi-7-2017
 368              		.file 9 "/Applications/Eclipse_e-puck2.app/Contents/Eclipse_e-puck2/Tools/gcc-arm-none-eabi-7-2017
 369              		.file 10 "<built-in>"
 370              		.file 11 "/Applications/Eclipse_e-puck2.app/Contents/Eclipse_e-puck2/Tools/gcc-arm-none-eabi-7-201
 371              		.file 12 "/Applications/Eclipse_e-puck2.app/Contents/Eclipse_e-puck2/Tools/gcc-arm-none-eabi-7-201
 372              		.file 13 "/Applications/Eclipse_e-puck2.app/Contents/Eclipse_e-puck2/Tools/gcc-arm-none-eabi-7-201
 373              		.file 14 "../../lib/e-puck2_main-processor/ChibiOS//os/rt/ports/ARMCMx/compilers/GCC/chtypes.h"
 374              		.file 15 "../../lib/e-puck2_main-processor/ChibiOS//os/rt/include/chsystypes.h"
 375              		.file 16 "../../lib/e-puck2_main-processor/ChibiOS//os/rt/include/chschd.h"
 376              		.file 17 "../../lib/e-puck2_main-processor/ChibiOS//os/ext/CMSIS/include/core_cm4.h"
 377              		.file 18 "../../lib/e-puck2_main-processor/ChibiOS//os/ext/CMSIS/ST/system_stm32f4xx.h"
 378              		.file 19 "../../lib/e-puck2_main-processor/ChibiOS//os/ext/CMSIS/ST/stm32f407xx.h"
 379              		.file 20 "../../lib/e-puck2_main-processor/ChibiOS//os/rt/ports/ARMCMx/chcore.h"
 380              		.file 21 "../../lib/e-puck2_main-processor/ChibiOS//os/rt/ports/ARMCMx/chcore_v7m.h"
 381              		.file 22 "../../lib/e-puck2_main-processor/ChibiOS//os/rt/include/chdebug.h"
 382              		.file 23 "../../lib/e-puck2_main-processor/ChibiOS//os/rt/include/chtm.h"
 383              		.file 24 "../../lib/e-puck2_main-processor/ChibiOS//os/rt/include/chstats.h"
 384              		.file 25 "../../lib/e-puck2_main-processor/ChibiOS//os/rt/include/chsem.h"
 385              		.file 26 "../../lib/e-puck2_main-processor/ChibiOS//os/rt/include/chmtx.h"
 386              		.file 27 "../../lib/e-puck2_main-processor/ChibiOS//os/rt/include/chregistry.h"
 387              		.file 28 "../../lib/e-puck2_main-processor/ChibiOS//os/rt/include/chevents.h"
 388              		.file 29 "../../lib/e-puck2_main-processor/ChibiOS//os/rt/include/chqueues.h"
 389              		.file 30 "../../lib/e-puck2_main-processor/ChibiOS//os/rt/include/chstreams.h"
 390              		.file 31 "../../lib/e-puck2_main-processor/ChibiOS//os/hal/ports/STM32/STM32F4xx/stm32_dma.h"
 391              		.file 32 "../../lib/e-puck2_main-processor/ChibiOS//os/hal/include/hal_ioblock.h"
 392              		.file 33 "../../lib/e-puck2_main-processor/ChibiOS//os/hal/ports/STM32/LLD/GPIOv2/pal_lld.h"
 393              		.file 34 "../../lib/e-puck2_main-processor/ChibiOS//os/hal/include/adc.h"
ARM GAS  /var/folders/hn/8gr5z_xn56v50rhk4_8cn7z80000gn/T//ccq9dby1.s 			page 8


 394              		.file 35 "../../lib/e-puck2_main-processor/ChibiOS//os/hal/ports/STM32/STM32F4xx/adc_lld.h"
 395              		.file 36 "../../lib/e-puck2_main-processor/ChibiOS//os/hal/include/can.h"
 396              		.file 37 "../../lib/e-puck2_main-processor/ChibiOS//os/hal/ports/STM32/LLD/can_lld.h"
 397              		.file 38 "../../lib/e-puck2_main-processor/ChibiOS//os/hal/include/dac.h"
 398              		.file 39 "../../lib/e-puck2_main-processor/ChibiOS//os/hal/ports/STM32/LLD/DACv1/dac_lld.h"
 399              		.file 40 "../../lib/e-puck2_main-processor/ChibiOS//os/hal/include/ext.h"
 400              		.file 41 "../../lib/e-puck2_main-processor/ChibiOS//os/hal/ports/STM32/LLD/ext_lld.h"
 401              		.file 42 "../../lib/e-puck2_main-processor/ChibiOS//os/hal/include/gpt.h"
 402              		.file 43 "../../lib/e-puck2_main-processor/ChibiOS//os/hal/ports/STM32/LLD/TIMv1/gpt_lld.h"
 403              		.file 44 "../../lib/e-puck2_main-processor/ChibiOS//os/hal/ports/STM32/LLD/TIMv1/stm32_tim.h"
 404              		.file 45 "../../lib/e-puck2_main-processor/ChibiOS//os/hal/include/i2c.h"
 405              		.file 46 "../../lib/e-puck2_main-processor/ChibiOS//os/hal/ports/STM32/LLD/I2Cv1/i2c_lld.h"
 406              		.file 47 "../../lib/e-puck2_main-processor/ChibiOS//os/hal/include/i2s.h"
 407              		.file 48 "../../lib/e-puck2_main-processor/ChibiOS//os/hal/ports/STM32/LLD/SPIv1/i2s_lld.h"
 408              		.file 49 "../../lib/e-puck2_main-processor/ChibiOS//os/hal/include/pwm.h"
 409              		.file 50 "../../lib/e-puck2_main-processor/ChibiOS//os/hal/ports/STM32/LLD/TIMv1/pwm_lld.h"
 410              		.file 51 "../../lib/e-puck2_main-processor/ChibiOS//os/hal/include/serial.h"
 411              		.file 52 "../../lib/e-puck2_main-processor/ChibiOS//os/hal/ports/STM32/LLD/USARTv1/serial_lld.h"
 412              		.file 53 "../../lib/e-puck2_main-processor/ChibiOS//os/hal/include/sdc.h"
 413              		.file 54 "../../lib/e-puck2_main-processor/ChibiOS//os/hal/ports/STM32/LLD/sdc_lld.h"
 414              		.file 55 "../../lib/e-puck2_main-processor/ChibiOS//os/hal/include/spi.h"
 415              		.file 56 "../../lib/e-puck2_main-processor/ChibiOS//os/hal/ports/STM32/LLD/SPIv1/spi_lld.h"
 416              		.file 57 "../../lib/e-puck2_main-processor/ChibiOS//os/hal/include/usb.h"
 417              		.file 58 "../../lib/e-puck2_main-processor/ChibiOS//os/hal/ports/STM32/LLD/OTGv1/usb_lld.h"
 418              		.file 59 "../../lib/e-puck2_main-processor/ChibiOS//os/hal/ports/STM32/LLD/OTGv1/stm32_otg.h"
 419              		.file 60 "../../lib/e-puck2_main-processor/ChibiOS//os/hal/include/serial_usb.h"
 420              		.file 61 "../../lib/e-puck2_main-processor/src/usbcfg.h"
 421              		.file 62 "../../lib/e-puck2_main-processor/ChibiOS_ext/os/hal/include/../ports/STM32/STM32F4xx/dcm
 422              		.file 63 "/Applications/Eclipse_e-puck2.app/Contents/Eclipse_e-puck2/Tools/gcc-arm-none-eabi-7-201
 423              		.file 64 "../../lib/e-puck2_main-processor/src/msgbus/messagebus.h"
 424              		.file 65 "../../lib/e-puck2_main-processor/src/parameter/parameter.h"
 425              		.file 66 "./main.h"
 426              		.file 67 "../../lib/e-puck2_main-processor/ChibiOS//os/rt/include/chsys.h"
 427              		.file 68 "../../lib/e-puck2_main-processor/ChibiOS//os/hal/include/hal.h"
 428              		.file 69 "../../lib/e-puck2_main-processor/src/memory_protection.h"
 429              		.file 70 "../../lib/e-puck2_main-processor/src/camera/dcmi_camera.h"
 430              		.file 71 "../../lib/e-puck2_main-processor/src/camera/po8030.h"
 431              		.file 72 "../../lib/e-puck2_main-processor/src/motors.h"
 432              		.file 73 "./pi_regulator.h"
 433              		.file 74 "./process_image.h"
 434              		.file 75 "../../lib/e-puck2_main-processor/ChibiOS//os/rt/include/chthreads.h"