ARM GAS  /var/folders/hn/8gr5z_xn56v50rhk4_8cn7z80000gn/T//ccUq2yeO.s 			page 1


   1              		.cpu cortex-m4
   2              		.eabi_attribute 27, 1
   3              		.eabi_attribute 28, 1
   4              		.eabi_attribute 20, 1
   5              		.eabi_attribute 21, 1
   6              		.eabi_attribute 23, 3
   7              		.eabi_attribute 24, 1
   8              		.eabi_attribute 25, 1
   9              		.eabi_attribute 26, 1
  10              		.eabi_attribute 30, 2
  11              		.eabi_attribute 34, 1
  12              		.eabi_attribute 18, 4
  13              		.file	"process_image.c"
  14              		.text
  15              	.Ltext0:
  16              		.cfi_sections	.debug_frame
  17              		.section	.text.ProcessImage,"ax",%progbits
  18              		.align	1
  19              		.p2align 4,,15
  20              		.syntax unified
  21              		.thumb
  22              		.thumb_func
  23              		.fpu fpv4-sp-d16
  24              		.type	ProcessImage, %function
  25              	ProcessImage:
  26              	.LFB258:
  27              		.file 1 "process_image.c"
  28              		.loc 1 43 0
  29              		.cfi_startproc
  30              		@ args = 0, pretend = 0, frame = 8
  31              		@ frame_needed = 0, uses_anonymous_args = 0
  32              	.LVL0:
  33 0000 10B5     		push	{r4, lr}
  34              		.cfi_def_cfa_offset 8
  35              		.cfi_offset 4, -8
  36              		.cfi_offset 14, -4
  37              	.LBB35:
  38              	.LBB36:
  39              		.file 2 "../../lib/e-puck2_main-processor/ChibiOS//os/rt/include/chregistry.h"
  40              		.loc 2 135 0
  41 0002 074A     		ldr	r2, .L6
  42              	.LBE36:
  43              	.LBE35:
  44              		.loc 1 43 0
  45 0004 074B     		ldr	r3, .L6+4
  46              	.LBB39:
  47              	.LBB37:
  48              		.loc 2 135 0
  49 0006 9269     		ldr	r2, [r2, #24]
  50 0008 0749     		ldr	r1, .L6+8
  51              	.LBE37:
  52              	.LBE39:
  53              		.loc 1 43 0
  54 000a 1B68     		ldr	r3, [r3]
  55              	.LBB40:
  56              	.LBB41:
  57              		.file 3 "../../lib/e-puck2_main-processor/ChibiOS//os/rt/include/chbsem.h"
ARM GAS  /var/folders/hn/8gr5z_xn56v50rhk4_8cn7z80000gn/T//ccUq2yeO.s 			page 2


  58              		.loc 3 143 0
  59 000c 074C     		ldr	r4, .L6+12
  60              	.LBE41:
  61              	.LBE40:
  62              	.LBB43:
  63              	.LBB38:
  64              		.loc 2 135 0
  65 000e 9161     		str	r1, [r2, #24]
  66              	.LBE38:
  67              	.LBE43:
  68              		.loc 1 43 0
  69 0010 82B0     		sub	sp, sp, #8
  70              		.cfi_def_cfa_offset 16
  71              		.loc 1 43 0
  72 0012 0193     		str	r3, [sp, #4]
  73              	.LVL1:
  74              	.L2:
  75              	.LBB44:
  76              	.LBB42:
  77              		.loc 3 143 0 discriminator 1
  78 0014 2046     		mov	r0, r4
  79 0016 FFF7FEFF 		bl	chSemWait
  80              	.LVL2:
  81              	.LBE42:
  82              	.LBE44:
  83              		.loc 1 55 0 discriminator 1
  84 001a FFF7FEFF 		bl	dcmi_get_last_image_ptr
  85              	.LVL3:
  86 001e F9E7     		b	.L2
  87              	.L7:
  88              		.align	2
  89              	.L6:
  90 0020 00000000 		.word	ch
  91 0024 00000000 		.word	__stack_chk_guard
  92 0028 00000000 		.word	.LANCHOR0
  93 002c 00000000 		.word	.LANCHOR1
  94              		.cfi_endproc
  95              	.LFE258:
  96              		.size	ProcessImage, .-ProcessImage
  97              		.section	.text.CaptureImage,"ax",%progbits
  98              		.align	1
  99              		.p2align 4,,15
 100              		.syntax unified
 101              		.thumb
 102              		.thumb_func
 103              		.fpu fpv4-sp-d16
 104              		.type	CaptureImage, %function
 105              	CaptureImage:
 106              	.LFB257:
 107              		.loc 1 18 0
 108              		.cfi_startproc
 109              		@ Volatile: function does not return.
 110              		@ args = 0, pretend = 0, frame = 8
 111              		@ frame_needed = 0, uses_anonymous_args = 0
 112              	.LVL4:
 113 0000 80B5     		push	{r7, lr}
 114              		.cfi_def_cfa_offset 8
ARM GAS  /var/folders/hn/8gr5z_xn56v50rhk4_8cn7z80000gn/T//ccUq2yeO.s 			page 3


 115              		.cfi_offset 7, -8
 116              		.cfi_offset 14, -4
 117              	.LBB62:
 118              	.LBB63:
 119              		.loc 2 135 0
 120 0002 244C     		ldr	r4, .L14
 121              	.LBE63:
 122              	.LBE62:
 123              		.loc 1 18 0
 124 0004 244A     		ldr	r2, .L14+4
 125              	.LBB66:
 126              	.LBB64:
 127              		.loc 2 135 0
 128 0006 A369     		ldr	r3, [r4, #24]
 129 0008 2449     		ldr	r1, .L14+8
 130              	.LBE64:
 131              	.LBE66:
 132              		.loc 1 18 0
 133 000a 1668     		ldr	r6, [r2]
 134              	.LBB67:
 135              	.LBB65:
 136              		.loc 2 135 0
 137 000c 9961     		str	r1, [r3, #24]
 138              	.LBE65:
 139              	.LBE67:
 140              		.loc 1 18 0
 141 000e 86B0     		sub	sp, sp, #24
 142              		.cfi_def_cfa_offset 32
 143              		.loc 1 24 0
 144 0010 0223     		movs	r3, #2
 145 0012 2025     		movs	r5, #32
 146 0014 0A22     		movs	r2, #10
 147 0016 0021     		movs	r1, #0
 148 0018 0093     		str	r3, [sp]
 149              		.loc 1 18 0
 150 001a 0596     		str	r6, [sp, #20]
 151              		.loc 1 24 0
 152 001c 4FF42073 		mov	r3, #640
 153 0020 CDE90155 		strd	r5, r5, [sp, #4]
 154 0024 3020     		movs	r0, #48
 155              	.LVL5:
 156 0026 1E4E     		ldr	r6, .L14+12
 157              	.LBB68:
 158              	.LBB69:
 159              	.LBB70:
 160              	.LBB71:
 161              	.LBB72:
 162              		.file 4 "../../lib/e-puck2_main-processor/ChibiOS//os/rt/include/chsys.h"
 163              		.loc 4 367 0
 164 0028 1E4F     		ldr	r7, .L14+16
 165              	.LBE72:
 166              	.LBE71:
 167              	.LBE70:
 168              	.LBE69:
 169              	.LBE68:
 170              		.loc 1 24 0
 171 002a FFF7FEFF 		bl	po8030_advanced_config
ARM GAS  /var/folders/hn/8gr5z_xn56v50rhk4_8cn7z80000gn/T//ccUq2yeO.s 			page 4


 172              	.LVL6:
 173              		.loc 1 25 0
 174 002e FFF7FEFF 		bl	dcmi_enable_double_buffering
 175              	.LVL7:
 176              		.loc 1 26 0
 177 0032 0020     		movs	r0, #0
 178 0034 FFF7FEFF 		bl	dcmi_set_capture_mode
 179              	.LVL8:
 180              	.LBB93:
 181              	.LBB90:
 182              	.LBB87:
 183              	.LBB77:
 184              	.LBB78:
 185              		.loc 3 271 0
 186 0038 B046     		mov	r8, r6
 187              	.LBE78:
 188              	.LBE77:
 189              	.LBE87:
 190              	.LBE90:
 191              	.LBE93:
 192              		.loc 1 27 0
 193 003a FFF7FEFF 		bl	dcmi_prepare
 194              	.LVL9:
 195 003e 16E0     		b	.L11
 196              	.LVL10:
 197              	.L9:
 198              	.LBB94:
 199              	.LBB91:
 200              	.LBB88:
 201              		.loc 3 286 0
 202 0040 FFF7FEFF 		bl	chSchRescheduleS
 203              	.LVL11:
 204              	.LBB80:
 205              	.LBB76:
 206              		.loc 4 360 0
 207 0044 FFF7FEFF 		bl	_dbg_check_unlock
 208              	.LVL12:
 209              		.loc 4 361 0
 210 0048 FFF7FEFF 		bl	_stats_stop_measure_crit_thd
 211              	.LVL13:
 212              		.loc 4 367 0
 213 004c 2368     		ldr	r3, [r4]
 214 004e A342     		cmp	r3, r4
 215 0050 07D0     		beq	.L10
 216 0052 A269     		ldr	r2, [r4, #24]
 217 0054 9B68     		ldr	r3, [r3, #8]
 218 0056 9268     		ldr	r2, [r2, #8]
 219 0058 9A42     		cmp	r2, r3
 220 005a 02D2     		bcs	.L10
 221 005c 3846     		mov	r0, r7
 222 005e FFF7FEFF 		bl	chSysHalt
 223              	.LVL14:
 224              	.L10:
 225              	.LBB73:
 226              	.LBB74:
 227              	.LBB75:
 228              		.file 5 "../../lib/e-puck2_main-processor/ChibiOS//os/ext/CMSIS/include/core_cmFunc.h"
ARM GAS  /var/folders/hn/8gr5z_xn56v50rhk4_8cn7z80000gn/T//ccUq2yeO.s 			page 5


 229              		.loc 5 546 0
 230 0062 0023     		movs	r3, #0
 231              		.syntax unified
 232              	@ 546 "../../lib/e-puck2_main-processor/ChibiOS//os/ext/CMSIS/include/core_cmFunc.h" 1
 233 0064 83F31188 		MSR basepri, r3
 234              	@ 0 "" 2
 235              	.LVL15:
 236              		.thumb
 237              		.syntax unified
 238              	.LBE75:
 239              	.LBE74:
 240              	.LBE73:
 241              	.LBE76:
 242              	.LBE80:
 243              	.LBE88:
 244              	.LBE91:
 245              		.loc 1 36 0
 246 0068 0220     		movs	r0, #2
 247 006a FFF7FEFF 		bl	set_front_led
 248              	.LVL16:
 249              	.L11:
 250              		.loc 1 31 0 discriminator 1
 251 006e FFF7FEFF 		bl	dcmi_capture_start
 252              	.LVL17:
 253              		.loc 1 33 0 discriminator 1
 254 0072 FFF7FEFF 		bl	wait_image_ready
 255              	.LVL18:
 256              	.LBB92:
 257              	.LBB89:
 258              	.LBB81:
 259              	.LBB82:
 260              	.LBB83:
 261              	.LBB84:
 262              	.LBB85:
 263              		.loc 5 546 0 discriminator 1
 264              		.syntax unified
 265              	@ 546 "../../lib/e-puck2_main-processor/ChibiOS//os/ext/CMSIS/include/core_cmFunc.h" 1
 266 0076 85F31188 		MSR basepri, r5
 267              	@ 0 "" 2
 268              	.LVL19:
 269              		.thumb
 270              		.syntax unified
 271              	.LBE85:
 272              	.LBE84:
 273              	.LBE83:
 274              		.loc 4 349 0 discriminator 1
 275 007a FFF7FEFF 		bl	_stats_start_measure_crit_thd
 276              	.LVL20:
 277              		.loc 4 350 0 discriminator 1
 278 007e FFF7FEFF 		bl	_dbg_check_lock
 279              	.LVL21:
 280              	.LBE82:
 281              	.LBE81:
 282              	.LBB86:
 283              	.LBB79:
 284              		.loc 3 268 0 discriminator 1
 285 0082 FFF7FEFF 		bl	chDbgCheckClassI
ARM GAS  /var/folders/hn/8gr5z_xn56v50rhk4_8cn7z80000gn/T//ccUq2yeO.s 			page 6


 286              	.LVL22:
 287              		.loc 3 270 0 discriminator 1
 288 0086 B368     		ldr	r3, [r6, #8]
 289 0088 002B     		cmp	r3, #0
 290 008a D9DC     		bgt	.L9
 291              		.loc 3 271 0
 292 008c 4046     		mov	r0, r8
 293 008e FFF7FEFF 		bl	chSemSignalI
 294              	.LVL23:
 295 0092 D5E7     		b	.L9
 296              	.L15:
 297              		.align	2
 298              	.L14:
 299 0094 00000000 		.word	ch
 300 0098 00000000 		.word	__stack_chk_guard
 301 009c 00000000 		.word	.LANCHOR2
 302 00a0 00000000 		.word	.LANCHOR1
 303 00a4 00000000 		.word	.LANCHOR3
 304              	.LBE79:
 305              	.LBE86:
 306              	.LBE89:
 307              	.LBE92:
 308              	.LBE94:
 309              		.cfi_endproc
 310              	.LFE257:
 311              		.size	CaptureImage, .-CaptureImage
 312              		.section	.text.get_distance_cm,"ax",%progbits
 313              		.align	1
 314              		.p2align 4,,15
 315              		.global	get_distance_cm
 316              		.syntax unified
 317              		.thumb
 318              		.thumb_func
 319              		.fpu fpv4-sp-d16
 320              		.type	get_distance_cm, %function
 321              	get_distance_cm:
 322              	.LFB259:
 323              		.loc 1 65 0
 324              		.cfi_startproc
 325              		@ args = 0, pretend = 0, frame = 8
 326              		@ frame_needed = 0, uses_anonymous_args = 0
 327 0000 00B5     		push	{lr}
 328              		.cfi_def_cfa_offset 4
 329              		.cfi_offset 14, -4
 330 0002 074B     		ldr	r3, .L20
 331 0004 83B0     		sub	sp, sp, #12
 332              		.cfi_def_cfa_offset 16
 333              		.loc 1 65 0
 334 0006 1A68     		ldr	r2, [r3]
 335 0008 0192     		str	r2, [sp, #4]
 336              		.loc 1 67 0
 337 000a 019A     		ldr	r2, [sp, #4]
 338 000c 1B68     		ldr	r3, [r3]
 339 000e 9A42     		cmp	r2, r3
 340 0010 04D1     		bne	.L19
 341 0012 9FED040A 		vldr.32	s0, .L20+4
 342 0016 03B0     		add	sp, sp, #12
ARM GAS  /var/folders/hn/8gr5z_xn56v50rhk4_8cn7z80000gn/T//ccUq2yeO.s 			page 7


 343              		.cfi_remember_state
 344              		.cfi_def_cfa_offset 4
 345              		@ sp needed
 346 0018 5DF804FB 		ldr	pc, [sp], #4
 347              	.L19:
 348              		.cfi_restore_state
 349 001c FFF7FEFF 		bl	__stack_chk_fail
 350              	.LVL24:
 351              	.L21:
 352              		.align	2
 353              	.L20:
 354 0020 00000000 		.word	__stack_chk_guard
 355 0024 00000000 		.word	0
 356              		.cfi_endproc
 357              	.LFE259:
 358              		.size	get_distance_cm, .-get_distance_cm
 359              		.section	.text.process_image_start,"ax",%progbits
 360              		.align	1
 361              		.p2align 4,,15
 362              		.global	process_image_start
 363              		.syntax unified
 364              		.thumb
 365              		.thumb_func
 366              		.fpu fpv4-sp-d16
 367              		.type	process_image_start, %function
 368              	process_image_start:
 369              	.LFB260:
 370              		.loc 1 69 0
 371              		.cfi_startproc
 372              		@ args = 0, pretend = 0, frame = 8
 373              		@ frame_needed = 0, uses_anonymous_args = 0
 374 0000 30B5     		push	{r4, r5, lr}
 375              		.cfi_def_cfa_offset 12
 376              		.cfi_offset 4, -12
 377              		.cfi_offset 5, -8
 378              		.cfi_offset 14, -4
 379 0002 0E4C     		ldr	r4, .L26
 380              		.loc 1 70 0
 381 0004 0E4B     		ldr	r3, .L26+4
 382              		.loc 1 69 0
 383 0006 2268     		ldr	r2, [r4]
 384              		.loc 1 70 0
 385 0008 0E48     		ldr	r0, .L26+8
 386              		.loc 1 69 0
 387 000a 85B0     		sub	sp, sp, #20
 388              		.cfi_def_cfa_offset 32
 389              		.loc 1 70 0
 390 000c 0025     		movs	r5, #0
 391              		.loc 1 69 0
 392 000e 0392     		str	r2, [sp, #12]
 393              		.loc 1 70 0
 394 0010 4FF4AF61 		mov	r1, #1400
 395 0014 4022     		movs	r2, #64
 396 0016 0095     		str	r5, [sp]
 397 0018 FFF7FEFF 		bl	chThdCreateStatic
 398              	.LVL25:
 399              		.loc 1 71 0
ARM GAS  /var/folders/hn/8gr5z_xn56v50rhk4_8cn7z80000gn/T//ccUq2yeO.s 			page 8


 400 001c 0A4B     		ldr	r3, .L26+12
 401 001e 0095     		str	r5, [sp]
 402 0020 4022     		movs	r2, #64
 403 0022 0A48     		ldr	r0, .L26+16
 404 0024 4FF41E71 		mov	r1, #632
 405 0028 FFF7FEFF 		bl	chThdCreateStatic
 406              	.LVL26:
 407              		.loc 1 72 0
 408 002c 039A     		ldr	r2, [sp, #12]
 409 002e 2368     		ldr	r3, [r4]
 410 0030 9A42     		cmp	r2, r3
 411 0032 01D1     		bne	.L25
 412 0034 05B0     		add	sp, sp, #20
 413              		.cfi_remember_state
 414              		.cfi_def_cfa_offset 12
 415              		@ sp needed
 416 0036 30BD     		pop	{r4, r5, pc}
 417              	.L25:
 418              		.cfi_restore_state
 419 0038 FFF7FEFF 		bl	__stack_chk_fail
 420              	.LVL27:
 421              	.L27:
 422              		.align	2
 423              	.L26:
 424 003c 00000000 		.word	__stack_chk_guard
 425 0040 00000000 		.word	ProcessImage
 426 0044 00000000 		.word	.LANCHOR4
 427 0048 00000000 		.word	CaptureImage
 428 004c 00000000 		.word	.LANCHOR5
 429              		.cfi_endproc
 430              	.LFE260:
 431              		.size	process_image_start, .-process_image_start
 432              		.section	.bss.waCaptureImage,"aw",%nobits
 433              		.align	3
 434              		.set	.LANCHOR5,. + 0
 435              		.type	waCaptureImage, %object
 436              		.size	waCaptureImage, 632
 437              	waCaptureImage:
 438 0000 00000000 		.space	632
 438      00000000 
 438      00000000 
 438      00000000 
 438      00000000 
 439              		.section	.bss.waProcessImage,"aw",%nobits
 440              		.align	3
 441              		.set	.LANCHOR4,. + 0
 442              		.type	waProcessImage, %object
 443              		.size	waProcessImage, 1400
 444              	waProcessImage:
 445 0000 00000000 		.space	1400
 445      00000000 
 445      00000000 
 445      00000000 
 445      00000000 
 446              		.section	.data.image_ready_sem,"aw",%progbits
 447              		.align	2
 448              		.set	.LANCHOR1,. + 0
ARM GAS  /var/folders/hn/8gr5z_xn56v50rhk4_8cn7z80000gn/T//ccUq2yeO.s 			page 9


 449              		.type	image_ready_sem, %object
 450              		.size	image_ready_sem, 12
 451              	image_ready_sem:
 452 0000 00000000 		.word	image_ready_sem
 453 0004 00000000 		.word	image_ready_sem
 454 0008 00000000 		.word	0
 455              		.section	.rodata.__FUNCTION__.11329,"a",%progbits
 456              		.align	2
 457              		.set	.LANCHOR2,. + 0
 458              		.type	__FUNCTION__.11329, %object
 459              		.size	__FUNCTION__.11329, 13
 460              	__FUNCTION__.11329:
 461 0000 43617074 		.ascii	"CaptureImage\000"
 461      75726549 
 461      6D616765 
 461      00
 462              		.section	.rodata.__FUNCTION__.11337,"a",%progbits
 463              		.align	2
 464              		.set	.LANCHOR0,. + 0
 465              		.type	__FUNCTION__.11337, %object
 466              		.size	__FUNCTION__.11337, 13
 467              	__FUNCTION__.11337:
 468 0000 50726F63 		.ascii	"ProcessImage\000"
 468      65737349 
 468      6D616765 
 468      00
 469              		.section	.rodata.__func__.7153,"a",%progbits
 470              		.align	2
 471              		.set	.LANCHOR3,. + 0
 472              		.type	__func__.7153, %object
 473              		.size	__func__.7153, 12
 474              	__func__.7153:
 475 0000 63685379 		.ascii	"chSysUnlock\000"
 475      73556E6C 
 475      6F636B00 
 476              		.text
 477              	.Letext0:
 478              		.file 6 "/Applications/Eclipse_e-puck2.app/Contents/Eclipse_e-puck2/Tools/gcc-arm-none-eabi-7-2017
 479              		.file 7 "/Applications/Eclipse_e-puck2.app/Contents/Eclipse_e-puck2/Tools/gcc-arm-none-eabi-7-2017
 480              		.file 8 "/Applications/Eclipse_e-puck2.app/Contents/Eclipse_e-puck2/Tools/gcc-arm-none-eabi-7-2017
 481              		.file 9 "../../lib/e-puck2_main-processor/ChibiOS//os/rt/ports/ARMCMx/compilers/GCC/chtypes.h"
 482              		.file 10 "../../lib/e-puck2_main-processor/ChibiOS//os/rt/include/chsystypes.h"
 483              		.file 11 "../../lib/e-puck2_main-processor/ChibiOS//os/rt/include/chschd.h"
 484              		.file 12 "../../lib/e-puck2_main-processor/ChibiOS//os/ext/CMSIS/include/core_cm4.h"
 485              		.file 13 "../../lib/e-puck2_main-processor/ChibiOS//os/ext/CMSIS/ST/system_stm32f4xx.h"
 486              		.file 14 "../../lib/e-puck2_main-processor/ChibiOS//os/ext/CMSIS/ST/stm32f407xx.h"
 487              		.file 15 "../../lib/e-puck2_main-processor/ChibiOS//os/rt/ports/ARMCMx/chcore.h"
 488              		.file 16 "../../lib/e-puck2_main-processor/ChibiOS//os/rt/ports/ARMCMx/chcore_v7m.h"
 489              		.file 17 "../../lib/e-puck2_main-processor/ChibiOS//os/rt/include/chdebug.h"
 490              		.file 18 "../../lib/e-puck2_main-processor/ChibiOS//os/rt/include/chtm.h"
 491              		.file 19 "../../lib/e-puck2_main-processor/ChibiOS//os/rt/include/chstats.h"
 492              		.file 20 "../../lib/e-puck2_main-processor/ChibiOS//os/rt/include/chsem.h"
 493              		.file 21 "../../lib/e-puck2_main-processor/ChibiOS//os/rt/include/chmtx.h"
 494              		.file 22 "../../lib/e-puck2_main-processor/ChibiOS//os/rt/include/chevents.h"
 495              		.file 23 "../../lib/e-puck2_main-processor/ChibiOS//os/rt/include/chqueues.h"
 496              		.file 24 "../../lib/e-puck2_main-processor/ChibiOS//os/hal/ports/STM32/STM32F4xx/stm32_dma.h"
 497              		.file 25 "../../lib/e-puck2_main-processor/ChibiOS//os/hal/include/hal_ioblock.h"
ARM GAS  /var/folders/hn/8gr5z_xn56v50rhk4_8cn7z80000gn/T//ccUq2yeO.s 			page 10


 498              		.file 26 "../../lib/e-puck2_main-processor/ChibiOS//os/hal/ports/STM32/LLD/GPIOv2/pal_lld.h"
 499              		.file 27 "../../lib/e-puck2_main-processor/ChibiOS//os/hal/include/adc.h"
 500              		.file 28 "../../lib/e-puck2_main-processor/ChibiOS//os/hal/ports/STM32/STM32F4xx/adc_lld.h"
 501              		.file 29 "../../lib/e-puck2_main-processor/ChibiOS//os/hal/include/can.h"
 502              		.file 30 "../../lib/e-puck2_main-processor/ChibiOS//os/hal/ports/STM32/LLD/can_lld.h"
 503              		.file 31 "../../lib/e-puck2_main-processor/ChibiOS//os/hal/include/dac.h"
 504              		.file 32 "../../lib/e-puck2_main-processor/ChibiOS//os/hal/ports/STM32/LLD/DACv1/dac_lld.h"
 505              		.file 33 "../../lib/e-puck2_main-processor/ChibiOS//os/hal/include/ext.h"
 506              		.file 34 "../../lib/e-puck2_main-processor/ChibiOS//os/hal/ports/STM32/LLD/ext_lld.h"
 507              		.file 35 "../../lib/e-puck2_main-processor/ChibiOS//os/hal/include/gpt.h"
 508              		.file 36 "../../lib/e-puck2_main-processor/ChibiOS//os/hal/ports/STM32/LLD/TIMv1/gpt_lld.h"
 509              		.file 37 "../../lib/e-puck2_main-processor/ChibiOS//os/hal/ports/STM32/LLD/TIMv1/stm32_tim.h"
 510              		.file 38 "../../lib/e-puck2_main-processor/ChibiOS//os/hal/include/i2c.h"
 511              		.file 39 "../../lib/e-puck2_main-processor/ChibiOS//os/hal/ports/STM32/LLD/I2Cv1/i2c_lld.h"
 512              		.file 40 "../../lib/e-puck2_main-processor/ChibiOS//os/hal/include/i2s.h"
 513              		.file 41 "../../lib/e-puck2_main-processor/ChibiOS//os/hal/ports/STM32/LLD/SPIv1/i2s_lld.h"
 514              		.file 42 "../../lib/e-puck2_main-processor/ChibiOS//os/hal/include/pwm.h"
 515              		.file 43 "../../lib/e-puck2_main-processor/ChibiOS//os/hal/ports/STM32/LLD/TIMv1/pwm_lld.h"
 516              		.file 44 "../../lib/e-puck2_main-processor/ChibiOS//os/hal/include/serial.h"
 517              		.file 45 "../../lib/e-puck2_main-processor/ChibiOS//os/hal/ports/STM32/LLD/USARTv1/serial_lld.h"
 518              		.file 46 "../../lib/e-puck2_main-processor/ChibiOS//os/hal/include/sdc.h"
 519              		.file 47 "../../lib/e-puck2_main-processor/ChibiOS//os/hal/ports/STM32/LLD/sdc_lld.h"
 520              		.file 48 "../../lib/e-puck2_main-processor/ChibiOS//os/hal/include/spi.h"
 521              		.file 49 "../../lib/e-puck2_main-processor/ChibiOS//os/hal/ports/STM32/LLD/SPIv1/spi_lld.h"
 522              		.file 50 "../../lib/e-puck2_main-processor/ChibiOS//os/hal/include/usb.h"
 523              		.file 51 "../../lib/e-puck2_main-processor/ChibiOS//os/hal/ports/STM32/LLD/OTGv1/usb_lld.h"
 524              		.file 52 "../../lib/e-puck2_main-processor/ChibiOS//os/hal/ports/STM32/LLD/OTGv1/stm32_otg.h"
 525              		.file 53 "../../lib/e-puck2_main-processor/ChibiOS//os/hal/include/serial_usb.h"
 526              		.file 54 "../../lib/e-puck2_main-processor/src/usbcfg.h"
 527              		.file 55 "../../lib/e-puck2_main-processor/ChibiOS_ext/os/hal/include/../ports/STM32/STM32F4xx/dcm
 528              		.file 56 "../../lib/e-puck2_main-processor/src/camera/po8030.h"
 529              		.file 57 "../../lib/e-puck2_main-processor/src/camera/dcmi_camera.h"
 530              		.file 58 "/Applications/Eclipse_e-puck2.app/Contents/Eclipse_e-puck2/Tools/gcc-arm-none-eabi-7-201
 531              		.file 59 "/Applications/Eclipse_e-puck2.app/Contents/Eclipse_e-puck2/Tools/gcc-arm-none-eabi-7-201
 532              		.file 60 "/Applications/Eclipse_e-puck2.app/Contents/Eclipse_e-puck2/Tools/gcc-arm-none-eabi-7-201
 533              		.file 61 "../../lib/e-puck2_main-processor/src/msgbus/messagebus.h"
 534              		.file 62 "/Applications/Eclipse_e-puck2.app/Contents/Eclipse_e-puck2/Tools/gcc-arm-none-eabi-7-201
 535              		.file 63 "/Applications/Eclipse_e-puck2.app/Contents/Eclipse_e-puck2/Tools/gcc-arm-none-eabi-7-201
 536              		.file 64 "../../lib/e-puck2_main-processor/src/parameter/parameter.h"
 537              		.file 65 "./main.h"
 538              		.file 66 "../../lib/e-puck2_main-processor/ChibiOS//os/rt/include/chthreads.h"